target datalayout = "e-m:e-p270:32:32-p271:32:32-p272:64:64-i64:64-i128:128-f80:128-n8:16:32:64-S128"
target triple = "x86_64-unknown-linux-gnu"

%"class.std::__shared_count" = type { ptr }
%"class.std::vector" = type { %"struct.std::_Vector_base" }
%"struct.std::_Vector_base" = type { %"struct.std::_Vector_base<facebook::velox::TypeParameter, std::allocator<facebook::velox::TypeParameter>>::_Vector_impl" }
%"struct.std::_Vector_base<facebook::velox::TypeParameter, std::allocator<facebook::velox::TypeParameter>>::_Vector_impl" = type { %"struct.std::_Vector_base<facebook::velox::TypeParameter, std::allocator<facebook::velox::TypeParameter>>::_Vector_impl_data" }
%"struct.std::_Vector_base<facebook::velox::TypeParameter, std::allocator<facebook::velox::TypeParameter>>::_Vector_impl_data" = type { ptr, ptr, ptr }
%"class.facebook::velox::Type.base" = type <{ %"class.facebook::velox::Tree", %"class.facebook::velox::ISerializable", i8 }>
%"class.facebook::velox::Tree" = type { ptr }
%"class.facebook::velox::ISerializable" = type { ptr }
%"class.std::shared_ptr" = type { %"class.std::__shared_ptr" }
%"class.std::__shared_ptr" = type { ptr, %"class.std::__shared_count" }
%"class.facebook::velox::ArrayType" = type { %"class.facebook::velox::TypeBase.base.130", %"class.std::shared_ptr", %"class.std::vector" }
%"class.facebook::velox::TypeBase.base.130" = type { %"class.facebook::velox::Type.base" }

; Function Attrs: mustprogress nounwind uwtable
define linkonce_odr noundef nonnull align 8 dereferenceable(16) ptr @_ZNK8facebook5velox9ArrayType11elementTypeEv(ptr noundef nonnull align 8 dereferenceable(64) %this) #2 comdat align 2 {
entry:
  %this.addr = alloca ptr, align 8
  store ptr %this, ptr %this.addr, align 8
  %this1 = load ptr, ptr %this.addr, align 8
  %child_ = getelementptr inbounds %"class.facebook::velox::ArrayType", ptr %this1, i32 0, i32 1
  ret ptr %child_
}

; Function Attrs: mustprogress uwtable
define noundef nonnull align 8 dereferenceable(16) ptr @_ZNK8facebook5velox9ArrayType7childAtEj(ptr noundef nonnull align 8 dereferenceable(64) %this, i32 noundef %idx) unnamed_addr #0 align 2 {
entry:
  %this.addr = alloca ptr, align 8
  %idx.addr = alloca i32, align 4
  store ptr %this, ptr %this.addr, align 8
  store i32 %idx, ptr %idx.addr, align 4
  %this1 = load ptr, ptr %this.addr, align 8
  %0 = load i32, ptr %idx.addr, align 4
  %cmp = icmp eq i32 %0, 0
  %lnot = xor i1 %cmp, true
  br i1 %lnot, label %if.then, label %if.end

if.then:                                          ; preds = %entry
  call void @llvm.trap()
  br label %if.end

if.end:                                           ; preds = %if.then, %entry
  %call = call noundef nonnull align 8 dereferenceable(16) ptr @_ZNK8facebook5velox9ArrayType11elementTypeEv(ptr noundef nonnull align 8 dereferenceable(64) %this1)
  ret ptr %call
}