; Function Attrs: mustprogress nounwind memory(inaccessiblemem: write) uwtable
define noundef nonnull align 8 dereferenceable(16) ptr @_ZNK8facebook5velox9ArrayType7childAtEj(ptr noundef nonnull readnone align 8 dereferenceable(64) %this, i32 noundef %idx) unnamed_addr #7 align 2 {
entry:
  %cmp.not = icmp eq i32 %idx, 0
  br i1 %cmp.not, label %if.end, label %if.then

if.then:                                          ; preds = %entry
  tail call void @llvm.trap()
  unreachable

if.end:                                           ; preds = %entry
  %child_.i = getelementptr inbounds i8, ptr %this, i64 24
  ret ptr %child_.i
}